Certificate:
    Data:
        Version: 1 (0x0)
        Serial Number: 4098 (0x1002)
    Signature Algorithm: sha512WithRSAEncryption
        Issuer: C=CN, ST=ShangHai, L=ShangHai, O=Kata, OU=Kata, CN=localhost
        Validity
            Not Before: Oct 17 08:57:53 2023 GMT
            Not After : Oct 16 08:57:53 2024 GMT
        Subject: C=CN, ST=ShangHai, O=kata-server, OU=Kata, CN=localhost
        Subject Public Key Info:
            Public Key Algorithm: rsaEncryption
                RSA Public-Key: (2048 bit)
                Modulus:
                    00:f8:3c:ce:38:94:2b:04:dd:db:61:54:b0:89:5e:
                    3b:ad:56:8a:ea:4c:d6:be:3b:a8:25:f8:6d:76:3a:
                    bb:80:1b:27:2b:88:21:09:95:2c:65:1a:54:a3:e8:
                    f0:1e:cc:8b:48:c5:8e:1f:e9:ae:11:20:79:f6:eb:
                    62:7c:d0:77:97:c2:1e:c9:41:43:33:3f:d2:63:7e:
                    e1:0e:8a:5b:87:e6:72:56:9a:5d:76:0a:4b:b2:c3:
                    96:84:2e:27:04:bc:e2:f6:9b:b1:55:0d:cc:9d:a3:
                    e7:d1:2f:d8:ea:18:e1:5d:29:a1:b8:b5:e7:d8:62:
                    3c:b9:e6:f6:e5:6d:47:25:6d:81:76:83:64:7e:a0:
                    e1:b8:3f:f3:4f:dd:21:3e:d6:42:8c:36:fa:1c:1b:
                    e4:5e:21:ff:7a:eb:24:5f:74:31:a2:5d:e4:2f:59:
                    c8:a0:18:05:39:04:7d:79:73:c1:f1:2b:84:6d:ff:
                    0e:eb:04:ee:66:d6:56:02:80:a3:df:ec:84:99:6b:
                    c1:c7:bd:28:dd:6f:6a:66:19:3a:b2:e4:c1:3b:a3:
                    44:bb:22:19:36:9e:4d:bf:38:b8:dd:8a:8f:46:30:
                    a0:75:a5:98:b8:e0:fd:39:d7:85:e7:b2:f9:72:52:
                    d4:c0:61:ce:d1:9d:75:26:e6:b4:7e:a8:97:1e:e1:
                    ca:7f
                Exponent: 65537 (0x10001)
    Signature Algorithm: sha512WithRSAEncryption
         8b:c5:5a:cb:be:7d:d8:19:97:78:9d:23:31:b1:5d:f6:73:ef:
         34:17:8a:02:d5:dd:69:a6:83:01:2e:67:cb:70:02:55:30:61:
         aa:ec:67:84:3b:70:02:d4:2a:bf:7c:ab:2a:56:8b:2b:dc:16:
         53:9e:47:69:5f:8a:fd:ee:28:e9:a8:0d:d1:7a:1b:1e:72:28:
         b3:c5:3a:10:15:cb:66:55:28:fd:94:e6:db:dc:01:97:79:0c:
         14:72:86:4b:36:c3:8d:13:23:98:d6:31:bb:0d:10:f3:9c:f4:
         df:2c:18:87:18:d6:04:a1:50:ae:d3:bf:5f:2f:99:d5:06:e1:
         1f:f6:dc:3f:24:03:e1:d3:e2:4b:70:a3:12:50:c3:25:27:c3:
         5a:da:4a:59:49:cc:3a:4d:58:b5:4f:f9:6a:0a:1a:05:8a:0b:
         00:08:4f:66:fc:ac:42:af:0f:b1:9f:dc:b2:6c:f0:6c:63:23:
         0e:fe:20:5a:61:56:0d:28:56:00:ca:6b:4f:df:0b:9e:ed:c1:
         fc:a5:d1:1c:d1:7c:d7:51:b8:1d:e2:de:4e:57:c0:27:20:66:
         e0:de:0d:3f:a8:83:eb:37:cc:66:16:41:ca:63:6a:9c:23:a6:
         7e:8a:b8:2f:f3:e5:b6:8a:1d:98:95:a8:2e:b9:f9:a8:e8:d9:
         a2:a5:63:ab
-----BEGIN CERTIFICATE-----
MIIDMzCCAhsCAhACMA0GCSqGSIb3DQEBDQUAMGUxCzAJBgNVBAYTAkNOMREwDwYD
VQQIEwhTaGFuZ0hhaTERMA8GA1UEBxMIU2hhbmdIYWkxDTALBgNVBAoTBEthdGEx
DTALBgNVBAsTBEthdGExEjAQBgNVBAMTCWxvY2FsaG9zdDAeFw0yMzEwMTcwODU3
NTNaFw0yNDEwMTYwODU3NTNaMFkxCzAJBgNVBAYTAkNOMREwDwYDVQQIEwhTaGFu
Z0hhaTEUMBIGA1UEChMLa2F0YS1zZXJ2ZXIxDTALBgNVBAsTBEthdGExEjAQBgNV
BAMTCWxvY2FsaG9zdDCCASIwDQYJKoZIhvcNAQEBBQADggEPADCCAQoCggEBAPg8
zjiUKwTd22FUsIleO61WiupM1r47qCX4bXY6u4AbJyuIIQmVLGUaVKPo8B7Mi0jF
jh/prhEgefbrYnzQd5fCHslBQzM/0mN+4Q6KW4fmclaaXXYKS7LDloQuJwS84vab
sVUNzJ2j59Ev2OoY4V0pobi159hiPLnm9uVtRyVtgXaDZH6g4bg/80/dIT7WQow2
+hwb5F4h/3rrJF90MaJd5C9ZyKAYBTkEfXlzwfErhG3/DusE7mbWVgKAo9/shJlr
wce9KN1vamYZOrLkwTujRLsiGTaeTb84uN2Kj0YwoHWlmLjg/TnXheey+XJS1MBh
ztGddSbmtH6olx7hyn8CAwEAATANBgkqhkiG9w0BAQ0FAAOCAQEAi8Vay7592BmX
eJ0jMbFd9nPvNBeKAtXdaaaDAS5ny3ACVTBhquxnhDtwAtQqv3yrKlaLK9wWU55H
aV+K/e4o6agN0XobHnIos8U6EBXLZlUo/ZTm29wBl3kMFHKGSzbDjRMjmNYxuw0Q
85z03ywYhxjWBKFQrtO/Xy+Z1QbhH/bcPyQD4dPiS3CjElDDJSfDWtpKWUnMOk1Y
tU/5agoaBYoLAAhPZvysQq8PsZ/csmzwbGMjDv4gWmFWDShWAMprT98Lnu3B/KXR
HNF811G4HeLeTlfAJyBm4N4NP6iD6zfMZhZBymNqnCOmfoq4L/PltoodmJWoLrn5
qOjZoqVjqw==
-----END CERTIFICATE-----
