Certificate:
    Data:
        Version: 1 (0x0)
        Serial Number: 4099 (0x1003)
    Signature Algorithm: sha512WithRSAEncryption
        Issuer: C=CN, ST=ShangHai, L=ShangHai, O=Kata, OU=Kata, CN=localhost
        Validity
            Not Before: Oct 17 08:58:23 2023 GMT
            Not After : Oct 16 08:58:23 2024 GMT
        Subject: C=CN, ST=ShangHai, O=Kata-Client, OU=Kata, CN=localhost
        Subject Public Key Info:
            Public Key Algorithm: rsaEncryption
                RSA Public-Key: (2048 bit)
                Modulus:
                    00:d4:82:ff:bc:96:26:1d:ac:ac:30:49:75:60:03:
                    0f:05:9b:07:df:4f:0f:b5:a6:96:3e:2b:63:38:88:
                    a9:ce:58:37:47:6d:e8:ff:d8:e3:30:5f:9a:68:d9:
                    3d:c0:ce:42:d0:8f:fd:74:e0:db:25:66:86:c2:eb:
                    f3:df:25:1c:b0:fb:00:5a:95:e9:6a:fc:8a:ad:15:
                    dc:5d:ee:ee:87:f4:fe:bf:df:5f:f0:ee:b5:ff:8c:
                    cd:47:8c:8a:a2:3e:7d:1b:7a:e8:4e:1b:aa:05:1a:
                    1b:96:58:1f:0f:cf:67:d8:db:d8:55:75:23:a2:c0:
                    dc:bb:d7:5d:aa:15:d6:e4:fb:2e:c4:7c:91:32:c5:
                    d7:2d:7f:f8:e4:36:dd:76:be:28:97:ed:77:0a:56:
                    22:4d:86:bb:a7:49:ee:0a:cc:29:bb:f6:6e:3b:1f:
                    c1:c0:90:cf:04:c0:8b:47:c8:93:80:58:6a:c1:28:
                    71:30:7d:49:91:e4:ad:e7:d5:c9:4b:84:53:fc:14:
                    67:4d:59:f1:e4:c6:b7:0f:34:bc:8f:9e:4c:a4:97:
                    a0:a2:04:49:e5:01:7c:7d:55:45:8a:3d:56:7e:c9:
                    49:78:04:ed:f4:8d:c5:0f:79:98:7e:89:b3:65:64:
                    43:93:59:e6:7e:61:8d:12:55:13:c3:ef:1d:9d:a6:
                    b2:e1
                Exponent: 65537 (0x10001)
    Signature Algorithm: sha512WithRSAEncryption
         9e:25:f1:c2:eb:21:f3:70:c1:99:97:c9:4b:44:16:33:d0:2b:
         4a:16:25:ae:df:0a:05:e8:28:c3:f4:d1:61:db:db:52:4e:7b:
         b5:8f:85:99:6c:31:1a:23:b6:a8:05:c0:86:a8:4a:77:5b:e5:
         7d:02:e5:ac:e6:53:e4:4d:6f:ba:de:0a:04:a1:c1:cf:e2:d5:
         70:75:f5:69:01:e8:b8:8b:19:87:04:99:ec:34:a2:d5:38:f4:
         52:96:34:df:16:a8:ae:e2:5b:48:d8:8a:89:bd:51:dd:5e:a5:
         8d:d9:8e:b3:e8:1d:90:69:c3:03:af:05:7a:ae:1b:44:5b:00:
         ca:be:f5:54:25:35:22:64:a8:c6:41:00:c4:fe:e0:92:57:7b:
         76:16:47:03:1c:6a:ae:4f:94:80:df:2a:1b:ca:d4:ac:78:6d:
         27:3a:88:c2:2a:b6:e9:90:3c:37:48:a4:b1:26:3f:09:4e:b0:
         15:13:bb:9e:de:32:65:86:65:fa:98:47:c2:7b:4a:4d:cf:66:
         e4:1a:ce:5b:bf:5c:28:35:1f:a6:86:fe:b0:18:f6:0d:52:c6:
         23:f3:e8:c4:33:f8:b4:52:9d:60:bd:ca:8b:43:4e:8e:11:f0:
         c7:19:87:e7:d3:fc:cc:40:c5:3d:26:a6:9d:b2:13:e7:28:cf:
         57:29:5c:0e
-----BEGIN CERTIFICATE-----
MIIDMzCCAhsCAhADMA0GCSqGSIb3DQEBDQUAMGUxCzAJBgNVBAYTAkNOMREwDwYD
VQQIEwhTaGFuZ0hhaTERMA8GA1UEBxMIU2hhbmdIYWkxDTALBgNVBAoTBEthdGEx
DTALBgNVBAsTBEthdGExEjAQBgNVBAMTCWxvY2FsaG9zdDAeFw0yMzEwMTcwODU4
MjNaFw0yNDEwMTYwODU4MjNaMFkxCzAJBgNVBAYTAkNOMREwDwYDVQQIEwhTaGFu
Z0hhaTEUMBIGA1UEChMLS2F0YS1DbGllbnQxDTALBgNVBAsTBEthdGExEjAQBgNV
BAMTCWxvY2FsaG9zdDCCASIwDQYJKoZIhvcNAQEBBQADggEPADCCAQoCggEBANSC
/7yWJh2srDBJdWADDwWbB99PD7Wmlj4rYziIqc5YN0dt6P/Y4zBfmmjZPcDOQtCP
/XTg2yVmhsLr898lHLD7AFqV6Wr8iq0V3F3u7of0/r/fX/Dutf+MzUeMiqI+fRt6
6E4bqgUaG5ZYHw/PZ9jb2FV1I6LA3LvXXaoV1uT7LsR8kTLF1y1/+OQ23Xa+KJft
dwpWIk2Gu6dJ7grMKbv2bjsfwcCQzwTAi0fIk4BYasEocTB9SZHkrefVyUuEU/wU
Z01Z8eTGtw80vI+eTKSXoKIESeUBfH1VRYo9Vn7JSXgE7fSNxQ95mH6Js2VkQ5NZ
5n5hjRJVE8PvHZ2msuECAwEAATANBgkqhkiG9w0BAQ0FAAOCAQEAniXxwush83DB
mZfJS0QWM9ArShYlrt8KBegow/TRYdvbUk57tY+FmWwxGiO2qAXAhqhKd1vlfQLl
rOZT5E1vut4KBKHBz+LVcHX1aQHouIsZhwSZ7DSi1Tj0UpY03xaoruJbSNiKib1R
3V6ljdmOs+gdkGnDA68Feq4bRFsAyr71VCU1ImSoxkEAxP7gkld7dhZHAxxqrk+U
gN8qG8rUrHhtJzqIwiq26ZA8N0iksSY/CU6wFRO7nt4yZYZl+phHwntKTc9m5BrO
W79cKDUfpob+sBj2DVLGI/PoxDP4tFKdYL3Ki0NOjhHwxxmH59P8zEDFPSamnbIT
5yjPVylcDg==
-----END CERTIFICATE-----
